target datalayout = "e-m:e-p270:32:32-p271:32:32-p272:64:64-i64:64-i128:128-f80:128-n8:16:32:64-S128"
target triple = "x86_64-pc-linux-gnu"

%struct.LogicalDecodingContext = type { ptr, ptr, ptr, ptr, ptr, i8, %struct.OutputPluginCallbacks, %struct.OutputPluginOptions, ptr, ptr, ptr, ptr, ptr, ptr, ptr, i8, i8, i8, i8, i8, i64, i32, i8, i8 }
%struct.OutputPluginCallbacks = type { ptr, ptr, ptr, ptr, ptr, ptr, ptr, ptr, ptr, ptr, ptr, ptr, ptr, ptr, ptr, ptr, ptr, ptr, ptr, ptr, ptr }
%struct.OutputPluginOptions = type { i32, i8 }

@.str.1 = private unnamed_addr constant [10 x i8] c"logical.c\00", align 1
@.str.18 = private unnamed_addr constant [63 x i8] c"writes are only accepted in commit, begin and change callbacks\00", align 1
@__func__.OutputPluginPrepareWrite = private unnamed_addr constant [25 x i8] c"OutputPluginPrepareWrite\00", align 1

; Function Attrs: nounwind uwtable
define dso_local void @OutputPluginPrepareWrite(ptr noundef %0, i1 noundef zeroext %1) #0 {
  %3 = alloca ptr, align 8
  %4 = alloca i8, align 1
  store ptr %0, ptr %3, align 8
  %5 = zext i1 %1 to i8
  store i8 %5, ptr %4, align 1
  %6 = load ptr, ptr %3, align 8
  %7 = getelementptr inbounds nuw %struct.LogicalDecodingContext, ptr %6, i32 0, i32 18
  %8 = load i8, ptr %7, align 1, !range !6, !noundef !7
  %9 = trunc i8 %8 to i1
  br i1 %9, label %20, label %10

10:                                               ; preds = %2
  br label %11

11:                                               ; preds = %10
  br i1 true, label %12, label %14

12:                                               ; preds = %11
  %13 = call zeroext i1 @errstart_cold(i32 noundef 21, ptr noundef null) #9
  br i1 %13, label %16, label %18

14:                                               ; preds = %11
  %15 = call zeroext i1 @errstart(i32 noundef 21, ptr noundef null)
  br i1 %15, label %16, label %18

16:                                               ; preds = %14, %12
  %17 = call i32 (ptr, ...) @errmsg_internal(ptr noundef @.str.18)
  call void @errfinish(ptr noundef @.str.1, i32 noundef 693, ptr noundef @__func__.OutputPluginPrepareWrite)
  br label %18

18:                                               ; preds = %16, %14, %12
  unreachable

19:                                               ; No predecessors!
  br label %20

20:                                               ; preds = %19, %2
  %21 = load ptr, ptr %3, align 8
  %22 = getelementptr inbounds nuw %struct.LogicalDecodingContext, ptr %21, i32 0, i32 9
  %23 = load ptr, ptr %22, align 8
  %24 = load ptr, ptr %3, align 8
  %25 = load ptr, ptr %3, align 8
  %26 = getelementptr inbounds nuw %struct.LogicalDecodingContext, ptr %25, i32 0, i32 20
  %27 = load i64, ptr %26, align 8
  %28 = load ptr, ptr %3, align 8
  %29 = getelementptr inbounds nuw %struct.LogicalDecodingContext, ptr %28, i32 0, i32 21
  %30 = load i32, ptr %29, align 8
  %31 = load i8, ptr %4, align 1, !range !6, !noundef !7
  %32 = trunc i8 %31 to i1
  call void %23(ptr noundef %24, i64 noundef %27, i32 noundef %30, i1 noundef zeroext %32)
  %33 = load ptr, ptr %3, align 8
  %34 = getelementptr inbounds nuw %struct.LogicalDecodingContext, ptr %33, i32 0, i32 19
  store i8 1, ptr %34, align 4
  ret void
}