; Function Attrs: nounwind uwtable
define dso_local void @OutputPluginPrepareWrite(ptr noundef %0, i1 noundef zeroext %1) local_unnamed_addr #0 {
  %3 = getelementptr inbounds nuw i8, ptr %0, i64 283
  %4 = load i8, ptr %3, align 1, !range !8, !noundef !9
  %5 = trunc nuw i8 %4 to i1
  br i1 %5, label %9, label %6

6:                                                ; preds = %2
  %7 = tail call zeroext i1 @errstart_cold(i32 noundef 21, ptr noundef null) #11
  tail call void @llvm.assume(i1 %7)
  %8 = tail call i32 (ptr, ...) @errmsg_internal(ptr noundef nonnull @.str.18) #10
  tail call void @errfinish(ptr noundef nonnull @.str.1, i32 noundef 693, ptr noundef nonnull @__func__.OutputPluginPrepareWrite) #10
  unreachable

9:                                                ; preds = %2
  %10 = getelementptr inbounds nuw i8, ptr %0, i64 232
  %11 = load ptr, ptr %10, align 8
  %12 = getelementptr inbounds nuw i8, ptr %0, i64 288
  %13 = load i64, ptr %12, align 8
  %14 = getelementptr inbounds nuw i8, ptr %0, i64 296
  %15 = load i32, ptr %14, align 8
  tail call void %11(ptr noundef nonnull %0, i64 noundef %13, i32 noundef %15, i1 noundef zeroext %1) #10
  %16 = getelementptr inbounds nuw i8, ptr %0, i64 284
  store i8 1, ptr %16, align 4
  ret void
}